; Function Attrs: mustprogress nofree norecurse nosync nounwind willreturn memory(none) uwtable
define noundef zeroext i1 @_ZN7jsonnet8internal26allowed_at_end_of_operatorEc(i8 noundef signext %0) local_unnamed_addr #4 {
  switch i8 %0, label %2 [
    i8 43, label %3
    i8 45, label %3
    i8 126, label %3
    i8 33, label %3
    i8 36, label %3
  ]

2:                                                ; preds = %1
  br label %3

3:                                                ; preds = %1, %1, %1, %1, %1, %2
  %.0 = phi i1 [ true, %2 ], [ false, %1 ], [ false, %1 ], [ false, %1 ], [ false, %1 ], [ false, %1 ]
  ret i1 %.0
}